target datalayout = "e-m:e-p270:32:32-p271:32:32-p272:64:64-i64:64-i128:128-f80:128-n8:16:32:64-S128"
target triple = "x86_64-unknown-linux-gnu"

%"class.icu_75::UObject" = type { ptr }
%"class.icu_75::CollationBuilder" = type { %"class.icu_75::CollationRuleParser::Sink", ptr, ptr, ptr, ptr, ptr, %"class.icu_75::CollationRootElements", i32, ptr, i8, i8, [6 x i8], %"class.icu_75::UnicodeSet", ptr, [31 x i64], i32, %"class.icu_75::UVector32", %"class.icu_75::UVector64" }
%"class.icu_75::CollationRuleParser::Sink" = type { %"class.icu_75::UObject" }
%"class.icu_75::CollationRootElements" = type <{ ptr, i32, [4 x i8] }>
%"class.icu_75::UnicodeSet" = type <{ %"class.icu_75::UnicodeFilter", ptr, i32, i32, i8, [7 x i8], ptr, ptr, i32, [4 x i8], ptr, i32, [4 x i8], ptr, ptr, [25 x i32], [4 x i8] }>
%"class.icu_75::UnicodeFilter" = type { %"class.icu_75::UnicodeFunctor", %"class.icu_75::UnicodeMatcher" }
%"class.icu_75::UnicodeFunctor" = type { %"class.icu_75::UObject" }
%"class.icu_75::UnicodeMatcher" = type { ptr }
%"class.icu_75::UVector32" = type { %"class.icu_75::UObject", i32, i32, i32, ptr }
%"class.icu_75::UVector64" = type { %"class.icu_75::UObject", i32, i32, i32, ptr }

; Function Attrs: mustprogress nounwind uwtable
define void @_ZN6icu_7516CollationBuilderD2Ev(ptr noundef nonnull align 8 dereferenceable(616) %this) unnamed_addr #3 align 2 {
entry:
  %this.addr = alloca ptr, align 8
  store ptr %this, ptr %this.addr, align 8
  %this1 = load ptr, ptr %this.addr, align 8
  store ptr getelementptr inbounds ({ [9 x ptr] }, ptr @_ZTVN6icu_7516CollationBuilderE, i32 0, i32 0, i32 2), ptr %this1, align 8
  %dataBuilder = getelementptr inbounds %"class.icu_75::CollationBuilder", ptr %this1, i32 0, i32 8
  %0 = load ptr, ptr %dataBuilder, align 8
  %isnull = icmp eq ptr %0, null
  br i1 %isnull, label %delete.end, label %delete.notnull

delete.notnull:                                   ; preds = %entry
  %vtable = load ptr, ptr %0, align 8
  %vfn = getelementptr inbounds ptr, ptr %vtable, i64 1
  %1 = load ptr, ptr %vfn, align 8
  call void %1(ptr noundef nonnull align 8 dereferenceable(640) %0) #6
  br label %delete.end

delete.end:                                       ; preds = %delete.notnull, %entry
  %nodes = getelementptr inbounds %"class.icu_75::CollationBuilder", ptr %this1, i32 0, i32 17
  call void @_ZN6icu_759UVector64D1Ev(ptr noundef nonnull align 8 dereferenceable(32) %nodes) #6
  %rootPrimaryIndexes = getelementptr inbounds %"class.icu_75::CollationBuilder", ptr %this1, i32 0, i32 16
  call void @_ZN6icu_759UVector32D1Ev(ptr noundef nonnull align 8 dereferenceable(32) %rootPrimaryIndexes) #6
  %optimizeSet = getelementptr inbounds %"class.icu_75::CollationBuilder", ptr %this1, i32 0, i32 12
  call void @_ZN6icu_7510UnicodeSetD1Ev(ptr noundef nonnull align 8 dereferenceable(200) %optimizeSet) #6
  call void @_ZN6icu_7519CollationRuleParser4SinkD2Ev(ptr noundef nonnull align 8 dereferenceable(8) %this1) #6
  ret void
}