; Function Attrs: mustprogress nounwind uwtable
define void @_ZN6icu_7516CollationBuilderD2Ev(ptr noundef nonnull align 8 dereferenceable(616) %this) unnamed_addr #4 align 2 {
entry:
  store ptr getelementptr inbounds ({ [9 x ptr] }, ptr @_ZTVN6icu_7516CollationBuilderE, i64 0, i32 0, i64 2), ptr %this, align 8
  %dataBuilder = getelementptr inbounds i8, ptr %this, i64 72
  %0 = load ptr, ptr %dataBuilder, align 8
  %isnull = icmp eq ptr %0, null
  br i1 %isnull, label %delete.end, label %delete.notnull

delete.notnull:                                   ; preds = %entry
  %vtable = load ptr, ptr %0, align 8
  %vfn = getelementptr inbounds i8, ptr %vtable, i64 8
  %1 = load ptr, ptr %vfn, align 8
  tail call void %1(ptr noundef nonnull align 8 dereferenceable(640) %0) #12
  br label %delete.end

delete.end:                                       ; preds = %delete.notnull, %entry
  %nodes = getelementptr inbounds i8, ptr %this, i64 584
  tail call void @_ZN6icu_759UVector64D1Ev(ptr noundef nonnull align 8 dereferenceable(32) %nodes) #12
  %rootPrimaryIndexes = getelementptr inbounds i8, ptr %this, i64 552
  tail call void @_ZN6icu_759UVector32D1Ev(ptr noundef nonnull align 8 dereferenceable(32) %rootPrimaryIndexes) #12
  %optimizeSet = getelementptr inbounds i8, ptr %this, i64 88
  tail call void @_ZN6icu_7510UnicodeSetD1Ev(ptr noundef nonnull align 8 dereferenceable(200) %optimizeSet) #12
  tail call void @_ZN6icu_7519CollationRuleParser4SinkD2Ev(ptr noundef nonnull align 8 dereferenceable(8) %this) #12
  ret void
}